Certificate:
    Data:
        Version: 3 (0x2)
        Serial Number: 4284 (0x10bc)
        Signature Algorithm: sha1WithRSAEncryption
        Issuer: C=CA, ST=Ontario, L=Toronto, O=Alliance Data | AIR MILES Reward Program, OU=Internal Certificate Authority
        Validity
            Not Before: Sep 15 03:27:37 2014 GMT
            Not After : Sep 12 03:27:37 2024 GMT
        Subject: C=CA, ST=Ontario, L=Toronto, O=Loyalty Management Group Canada INC, OU=Platform Services, CN=tor-ovn-1589.loyalty.com
        Subject Public Key Info:
            Public Key Algorithm: rsaEncryption
            RSA Public Key: (1024 bit)
                Modulus (1024 bit):
                    00:98:14:f6:5d:82:4d:ea:cc:8a:01:88:3d:0a:ae:
                    89:c5:9e:a8:8d:6a:20:45:fa:8b:df:2b:f9:38:81:
                    25:89:40:29:02:b3:9c:f9:c1:ba:fc:ba:d5:66:04:
                    94:aa:4b:46:eb:f8:5b:04:3d:1d:af:5c:85:a5:b0:
                    fb:e0:f6:cb:eb:17:c4:94:69:44:c6:36:c1:ff:96:
                    24:2f:31:7a:71:35:e9:78:8c:72:e8:07:80:ae:4a:
                    5d:96:cb:f2:7f:24:8e:7f:ff:19:4e:4f:aa:0d:be:
                    fd:19:e4:0d:2d:00:ab:b2:c7:09:c1:1e:0d:a0:ec:
                    db:4d:45:b7:0d:46:86:3f:6f
                Exponent: 65537 (0x10001)
        X509v3 extensions:
            X509v3 Basic Constraints: 
                CA:FALSE
            Netscape Comment: 
                OpenSSL Generated Certificate
            X509v3 Subject Key Identifier: 
                11:C6:D1:92:E6:BD:4D:4E:A3:27:D3:D6:B2:7E:16:A0:BB:55:8C:A0
            X509v3 Authority Key Identifier: 
                keyid:3E:D5:60:A3:63:50:16:F7:33:2F:6C:76:B6:4F:86:DC:17:A5:6E:13
                DirName:/C=CA/ST=Ontario/L=Toronto/O=Alliance Data | AIR MILES Reward Program/OU=Internal Certificate Authority
                serial:00

    Signature Algorithm: sha1WithRSAEncryption
        0b:83:1d:f5:a5:e7:70:a1:55:02:0f:c9:66:24:a5:86:96:fb:
        8b:3a:9f:9a:ae:eb:f2:12:9d:de:16:dd:bc:22:84:23:cb:bd:
        7b:13:b7:58:5e:fd:07:bb:e4:35:ba:61:09:93:7e:5b:31:ca:
        ff:f2:42:11:50:b2:23:95:6b:83:5d:3b:15:8c:b7:4a:56:9f:
        b4:96:35:4b:7c:3e:51:5f:a7:74:0f:09:20:b7:ae:a9:ba:3c:
        87:fc:b1:bf:78:5b:b9:bb:27:f8:99:f9:92:75:f0:99:5a:23:
        01:0b:32:f2:bc:c9:8d:7e:12:47:6f:27:fa:a7:09:17:a1:48:
        d2:2c
-----BEGIN CERTIFICATE-----
MIIDvzCCAyigAwIBAgICELwwDQYJKoZIhvcNAQEFBQAwgY0xCzAJBgNVBAYTAkNB
MRAwDgYDVQQIEwdPbnRhcmlvMRAwDgYDVQQHEwdUb3JvbnRvMTEwLwYDVQQKFChB
bGxpYW5jZSBEYXRhIHwgQUlSIE1JTEVTIFJld2FyZCBQcm9ncmFtMScwJQYDVQQL
Ex5JbnRlcm5hbCBDZXJ0aWZpY2F0ZSBBdXRob3JpdHkwHhcNMTQwOTE1MDMyNzM3
WhcNMjQwOTEyMDMyNzM3WjCBnjELMAkGA1UEBhMCQ0ExEDAOBgNVBAgTB09udGFy
aW8xEDAOBgNVBAcTB1Rvcm9udG8xLDAqBgNVBAoTI0xveWFsdHkgTWFuYWdlbWVu
dCBHcm91cCBDYW5hZGEgSU5DMRowGAYDVQQLExFQbGF0Zm9ybSBTZXJ2aWNlczEh
MB8GA1UEAxMYdG9yLW92bi0xNTg5LmxveWFsdHkuY29tMIGfMA0GCSqGSIb3DQEB
AQUAA4GNADCBiQKBgQCYFPZdgk3qzIoBiD0KronFnqiNaiBF+ovfK/k4gSWJQCkC
s5z5wbr8utVmBJSqS0br+FsEPR2vXIWlsPvg9svrF8SUaUTGNsH/liQvMXpxNel4
jHLoB4CuSl2Wy/J/JI5//xlOT6oNvv0Z5A0tAKuyxwnBHg2g7NtNRbcNRoY/bwID
AQABo4IBGTCCARUwCQYDVR0TBAIwADAsBglghkgBhvhCAQ0EHxYdT3BlblNTTCBH
ZW5lcmF0ZWQgQ2VydGlmaWNhdGUwHQYDVR0OBBYEFBHG0ZLmvU1OoyfT1rJ+FqC7
VYygMIG6BgNVHSMEgbIwga+AFD7VYKNjUBb3My9sdrZPhtwXpW4ToYGTpIGQMIGN
MQswCQYDVQQGEwJDQTEQMA4GA1UECBMHT250YXJpbzEQMA4GA1UEBxMHVG9yb250
bzExMC8GA1UEChQoQWxsaWFuY2UgRGF0YSB8IEFJUiBNSUxFUyBSZXdhcmQgUHJv
Z3JhbTEnMCUGA1UECxMeSW50ZXJuYWwgQ2VydGlmaWNhdGUgQXV0aG9yaXR5ggEA
MA0GCSqGSIb3DQEBBQUAA4GBAAuDHfWl53ChVQIPyWYkpYaW+4s6n5qu6/ISnd4W
3bwihCPLvXsTt1he/Qe75DW6YQmTflsxyv/yQhFQsiOVa4NdOxWMt0pWn7SWNUt8
PlFfp3QPCSC3rqm6PIf8sb94W7m7J/iZ+ZJ18JlaIwELMvK8yY1+EkdvJ/qnCReh
SNIs
-----END CERTIFICATE-----
